; Function Attrs: nounwind uwtable
define noundef i32 @_async_com_callback(ptr noundef %0) #0 {
  %2 = getelementptr inbounds nuw i8, ptr %0, i64 16
  tail call void @g_mutex_lock(ptr noundef nonnull %2) #11
  %3 = getelementptr inbounds nuw i8, ptr %0, i64 24
  %4 = load ptr, ptr %3, align 8, !tbaa !31
  %5 = load ptr, ptr %4, align 8, !tbaa !34
  %6 = getelementptr inbounds nuw i8, ptr %4, i64 8
  %7 = load i32, ptr %6, align 8, !tbaa !37
  tail call void @g_signal_emitv(ptr noundef %5, i32 noundef %7, i32 noundef 0, ptr noundef null) #11
  %8 = getelementptr inbounds nuw i8, ptr %4, i64 12
  br label %9

9:                                                ; preds = %9, %1
  %indvars.iv.i = phi i64 [ 0, %1 ], [ %indvars.iv.next.i, %9 ]
  %10 = load ptr, ptr %4, align 8, !tbaa !34
  %11 = getelementptr inbounds nuw %struct._GValue, ptr %10, i64 %indvars.iv.i
  tail call void @g_value_unset(ptr noundef %11) #11
  %indvars.iv.next.i = add nuw nsw i64 %indvars.iv.i, 1
  %12 = load i32, ptr %8, align 4, !tbaa !38
  %13 = zext i32 %12 to i64
  %.not.not.i = icmp samesign ult i64 %indvars.iv.i, %13
  br i1 %.not.not.i, label %9, label %_signal_raise.exit

_signal_raise.exit:                               ; preds = %9
  %14 = load ptr, ptr %4, align 8, !tbaa !34
  tail call void @free(ptr noundef %14) #11
  tail call void @free(ptr noundef nonnull %4) #11
  tail call void @g_cond_signal(ptr noundef %0) #11
  tail call void @g_mutex_unlock(ptr noundef nonnull %2) #11
  ret i32 0
}